target datalayout = "e-m:e-p270:32:32-p271:32:32-p272:64:64-i64:64-i128:128-f80:128-n8:16:32:64-S128"
target triple = "x86_64-pc-linux-gnu"

%struct.evthread_lock_callbacks = type { i32, i32, ptr, ptr, ptr, ptr }
%struct.event = type { %struct.event_callback, %union.anon.0, i32, i16, i16, ptr, %union.anon.2, %struct.timeval }
%struct.event_callback = type { %struct.anon, i16, i8, i8, %union.anon, ptr }
%struct.anon = type { ptr, ptr }
%union.anon = type { ptr }
%union.anon.0 = type { %struct.anon.1 }
%struct.anon.1 = type { ptr, ptr }
%union.anon.2 = type { %struct.anon.3 }
%struct.anon.3 = type { %struct.anon.4, %struct.timeval }
%struct.anon.4 = type { ptr, ptr }
%struct.timeval = type { i64, i64 }
%struct.tcp_connection = type { ptr, i32, i16 }
%struct.sockaddr_storage = type { i16, [118 x i8], i64 }
%struct.evdns_base = type { ptr, ptr, ptr, i32, ptr, i32, i32, i32, i32, %struct.timeval, i32, i32, i32, i32, i16, %struct.timeval, i16, %struct.timeval, %struct.sockaddr_storage, i32, %struct.timeval, i32, i32, i32, i32, i32, i32, ptr, %struct.hosts_list, %struct.evdns_tree, ptr, i32, i32, i32, i32 }
%struct.hosts_list = type { ptr, ptr }
%struct.evdns_tree = type { ptr }
%struct.nameserver = type { i32, ptr, %struct.sockaddr_storage, i32, i32, i32, %struct.event, ptr, ptr, %struct.event, ptr, i8, i8, i8, ptr, i32 }

@evthread_lock_fns_ = external global %struct.evthread_lock_callbacks, align 8
@.str.67 = private unnamed_addr constant [26 x i8] c"Event %d on connection %p\00", align 1

; Function Attrs: nounwind uwtable
define internal void @evdns_tcp_disconnect(ptr noundef %0) #0 {
  %2 = alloca ptr, align 8
  store ptr %0, ptr %2, align 8
  %3 = load ptr, ptr %2, align 8
  %4 = icmp ne ptr %3, null
  br i1 %4, label %6, label %5

5:                                                ; preds = %1
  br label %21

6:                                                ; preds = %1
  %7 = load ptr, ptr %2, align 8
  %8 = getelementptr inbounds nuw %struct.tcp_connection, ptr %7, i32 0, i32 1
  store i32 0, ptr %8, align 8
  %9 = load ptr, ptr %2, align 8
  %10 = getelementptr inbounds nuw %struct.tcp_connection, ptr %9, i32 0, i32 2
  store i16 0, ptr %10, align 4
  %11 = load ptr, ptr %2, align 8
  %12 = getelementptr inbounds nuw %struct.tcp_connection, ptr %11, i32 0, i32 0
  %13 = load ptr, ptr %12, align 8
  %14 = icmp ne ptr %13, null
  br i1 %14, label %15, label %21

15:                                               ; preds = %6
  %16 = load ptr, ptr %2, align 8
  %17 = getelementptr inbounds nuw %struct.tcp_connection, ptr %16, i32 0, i32 0
  %18 = load ptr, ptr %17, align 8
  call void @bufferevent_free(ptr noundef %18)
  %19 = load ptr, ptr %2, align 8
  %20 = getelementptr inbounds nuw %struct.tcp_connection, ptr %19, i32 0, i32 0
  store ptr null, ptr %20, align 8
  br label %21

21:                                               ; preds = %5, %15, %6
  ret void
}

; Function Attrs: nounwind uwtable
define internal void @disconnect_and_free_connection(ptr noundef %0) #0 {
  %2 = alloca ptr, align 8
  store ptr %0, ptr %2, align 8
  %3 = load ptr, ptr %2, align 8
  %4 = icmp ne ptr %3, null
  br i1 %4, label %6, label %5

5:                                                ; preds = %1
  br label %9

6:                                                ; preds = %1
  %7 = load ptr, ptr %2, align 8
  call void @evdns_tcp_disconnect(ptr noundef %7)
  %8 = load ptr, ptr %2, align 8
  call void @event_mm_free_(ptr noundef %8)
  br label %9

9:                                                ; preds = %6, %5
  ret void
}

; Function Attrs: nounwind uwtable
define internal void @client_tcp_event_cb(ptr noundef %0, i16 noundef signext %1, ptr noundef %2) #0 {
  %4 = alloca ptr, align 8
  %5 = alloca i16, align 2
  %6 = alloca ptr, align 8
  %7 = alloca ptr, align 8
  %8 = alloca ptr, align 8
  store ptr %0, ptr %4, align 8
  store i16 %1, ptr %5, align 2
  store ptr %2, ptr %6, align 8
  call void @llvm.lifetime.start.p0(i64 8, ptr %7) #10
  %9 = load ptr, ptr %6, align 8
  store ptr %9, ptr %7, align 8
  call void @llvm.lifetime.start.p0(i64 8, ptr %8) #10
  %10 = load ptr, ptr %7, align 8
  %11 = getelementptr inbounds nuw %struct.nameserver, ptr %10, i32 0, i32 1
  %12 = load ptr, ptr %11, align 8
  store ptr %12, ptr %8, align 8
  br label %13

13:                                               ; preds = %3
  br label %14

14:                                               ; preds = %13
  br label %15

15:                                               ; preds = %14
  br label %16

16:                                               ; preds = %15
  %17 = load ptr, ptr %7, align 8
  %18 = getelementptr inbounds nuw %struct.nameserver, ptr %17, i32 0, i32 14
  %19 = load ptr, ptr %18, align 8
  %20 = getelementptr inbounds nuw %struct.evdns_base, ptr %19, i32 0, i32 30
  %21 = load ptr, ptr %20, align 8
  %22 = icmp ne ptr %21, null
  br i1 %22, label %23, label %31

23:                                               ; preds = %16
  %24 = load ptr, ptr getelementptr inbounds nuw (%struct.evthread_lock_callbacks, ptr @evthread_lock_fns_, i32 0, i32 4), align 8
  %25 = load ptr, ptr %7, align 8
  %26 = getelementptr inbounds nuw %struct.nameserver, ptr %25, i32 0, i32 14
  %27 = load ptr, ptr %26, align 8
  %28 = getelementptr inbounds nuw %struct.evdns_base, ptr %27, i32 0, i32 30
  %29 = load ptr, ptr %28, align 8
  %30 = call i32 %24(i32 noundef 0, ptr noundef %29)
  br label %31

31:                                               ; preds = %23, %16
  br label %32

32:                                               ; preds = %31
  br label %33

33:                                               ; preds = %32
  br label %34

34:                                               ; preds = %33
  br label %35

35:                                               ; preds = %34
  br label %36

36:                                               ; preds = %35
  %37 = load i16, ptr %5, align 2
  %38 = sext i16 %37 to i32
  %39 = load ptr, ptr %8, align 8
  call void (i32, ptr, ...) @evdns_log_(i32 noundef 0, ptr noundef @.str.67, i32 noundef %38, ptr noundef %39)
  %40 = load i16, ptr %5, align 2
  %41 = sext i16 %40 to i32
  %42 = and i32 %41, 64
  %43 = icmp ne i32 %42, 0
  br i1 %43, label %44, label %50

44:                                               ; preds = %36
  %45 = load ptr, ptr %7, align 8
  %46 = getelementptr inbounds nuw %struct.nameserver, ptr %45, i32 0, i32 1
  %47 = load ptr, ptr %46, align 8
  call void @disconnect_and_free_connection(ptr noundef %47)
  %48 = load ptr, ptr %7, align 8
  %49 = getelementptr inbounds nuw %struct.nameserver, ptr %48, i32 0, i32 1
  store ptr null, ptr %49, align 8
  br label %80

50:                                               ; preds = %36
  %51 = load i16, ptr %5, align 2
  %52 = sext i16 %51 to i32
  %53 = and i32 %52, 48
  %54 = icmp ne i32 %53, 0
  br i1 %54, label %55, label %61

55:                                               ; preds = %50
  %56 = load ptr, ptr %7, align 8
  %57 = getelementptr inbounds nuw %struct.nameserver, ptr %56, i32 0, i32 1
  %58 = load ptr, ptr %57, align 8
  call void @disconnect_and_free_connection(ptr noundef %58)
  %59 = load ptr, ptr %7, align 8
  %60 = getelementptr inbounds nuw %struct.nameserver, ptr %59, i32 0, i32 1
  store ptr null, ptr %60, align 8
  br label %79

61:                                               ; preds = %50
  %62 = load i16, ptr %5, align 2
  %63 = sext i16 %62 to i32
  %64 = and i32 %63, 128
  %65 = icmp ne i32 %64, 0
  br i1 %65, label %66, label %78

66:                                               ; preds = %61
  br label %67

67:                                               ; preds = %66
  br label %68

68:                                               ; preds = %67
  br label %69

69:                                               ; preds = %68
  %70 = load ptr, ptr %8, align 8
  %71 = getelementptr inbounds nuw %struct.tcp_connection, ptr %70, i32 0, i32 1
  store i32 2, ptr %71, align 8
  %72 = load ptr, ptr %4, align 8
  %73 = call i32 @bufferevent_getfd(ptr noundef %72)
  %74 = call i32 @evutil_make_socket_nonblocking(i32 noundef %73)
  %75 = load ptr, ptr %4, align 8
  %76 = load ptr, ptr %7, align 8
  call void @bufferevent_setcb(ptr noundef %75, ptr noundef @client_tcp_read_packet_cb, ptr noundef null, ptr noundef @client_tcp_event_cb, ptr noundef %76)
  %77 = load ptr, ptr %4, align 8
  call void @bufferevent_setwatermark(ptr noundef %77, i16 noundef signext 2, i64 noundef 2, i64 noundef 0)
  br label %78

78:                                               ; preds = %69, %61
  br label %79

79:                                               ; preds = %78, %55
  br label %80

80:                                               ; preds = %79, %44
  br label %81

81:                                               ; preds = %80
  %82 = load ptr, ptr %7, align 8
  %83 = getelementptr inbounds nuw %struct.nameserver, ptr %82, i32 0, i32 14
  %84 = load ptr, ptr %83, align 8
  %85 = getelementptr inbounds nuw %struct.evdns_base, ptr %84, i32 0, i32 30
  %86 = load ptr, ptr %85, align 8
  %87 = icmp ne ptr %86, null
  br i1 %87, label %88, label %96

88:                                               ; preds = %81
  %89 = load ptr, ptr getelementptr inbounds nuw (%struct.evthread_lock_callbacks, ptr @evthread_lock_fns_, i32 0, i32 5), align 8
  %90 = load ptr, ptr %7, align 8
  %91 = getelementptr inbounds nuw %struct.nameserver, ptr %90, i32 0, i32 14
  %92 = load ptr, ptr %91, align 8
  %93 = getelementptr inbounds nuw %struct.evdns_base, ptr %92, i32 0, i32 30
  %94 = load ptr, ptr %93, align 8
  %95 = call i32 %89(i32 noundef 0, ptr noundef %94)
  br label %96

96:                                               ; preds = %88, %81
  br label %97

97:                                               ; preds = %96
  br label %98

98:                                               ; preds = %97
  call void @llvm.lifetime.end.p0(i64 8, ptr %8) #10
  call void @llvm.lifetime.end.p0(i64 8, ptr %7) #10
  ret void
}