; Function Attrs: nounwind uwtable
define internal void @client_tcp_event_cb(ptr noundef %0, i16 noundef signext %1, ptr noundef %2) #2 {
  %4 = getelementptr inbounds nuw i8, ptr %2, i64 8
  %5 = load ptr, ptr %4, align 8
  %6 = getelementptr inbounds nuw i8, ptr %2, i64 432
  %7 = load ptr, ptr %6, align 8
  %8 = getelementptr inbounds nuw i8, ptr %7, i64 344
  %9 = load ptr, ptr %8, align 8
  %.not = icmp eq ptr %9, null
  br i1 %.not, label %13, label %10

10:                                               ; preds = %3
  %11 = load ptr, ptr getelementptr inbounds nuw (i8, ptr @evthread_lock_fns_, i64 24), align 8
  %12 = tail call i32 %11(i32 noundef 0, ptr noundef nonnull %9) #21
  br label %13

13:                                               ; preds = %3, %10
  %14 = sext i16 %1 to i32
  tail call void (i32, ptr, ...) @evdns_log_(i32 noundef 0, ptr noundef nonnull @.str.67, i32 noundef %14, ptr noundef %5)
  %15 = and i16 %1, 64
  %.not20 = icmp eq i16 %15, 0
  br i1 %.not20, label %23, label %16

16:                                               ; preds = %13
  %17 = load ptr, ptr %4, align 8
  %.not.i = icmp eq ptr %17, null
  br i1 %.not.i, label %disconnect_and_free_connection.exit, label %18

18:                                               ; preds = %16
  %19 = getelementptr inbounds nuw i8, ptr %17, i64 8
  store i32 0, ptr %19, align 8
  %20 = getelementptr inbounds nuw i8, ptr %17, i64 12
  store i16 0, ptr %20, align 4
  %21 = load ptr, ptr %17, align 8
  %.not.i.i = icmp eq ptr %21, null
  br i1 %.not.i.i, label %evdns_tcp_disconnect.exit.i, label %22

22:                                               ; preds = %18
  tail call void @bufferevent_free(ptr noundef nonnull %21) #21
  store ptr null, ptr %17, align 8
  br label %evdns_tcp_disconnect.exit.i

evdns_tcp_disconnect.exit.i:                      ; preds = %22, %18
  tail call void @event_mm_free_(ptr noundef nonnull %17) #21
  br label %disconnect_and_free_connection.exit

disconnect_and_free_connection.exit:              ; preds = %16, %evdns_tcp_disconnect.exit.i
  store ptr null, ptr %4, align 8
  br label %38

23:                                               ; preds = %13
  %24 = and i16 %1, 48
  %.not21 = icmp eq i16 %24, 0
  br i1 %.not21, label %32, label %25

25:                                               ; preds = %23
  %26 = load ptr, ptr %4, align 8
  %.not.i24 = icmp eq ptr %26, null
  br i1 %.not.i24, label %disconnect_and_free_connection.exit27, label %27

27:                                               ; preds = %25
  %28 = getelementptr inbounds nuw i8, ptr %26, i64 8
  store i32 0, ptr %28, align 8
  %29 = getelementptr inbounds nuw i8, ptr %26, i64 12
  store i16 0, ptr %29, align 4
  %30 = load ptr, ptr %26, align 8
  %.not.i.i25 = icmp eq ptr %30, null
  br i1 %.not.i.i25, label %evdns_tcp_disconnect.exit.i26, label %31

31:                                               ; preds = %27
  tail call void @bufferevent_free(ptr noundef nonnull %30) #21
  store ptr null, ptr %26, align 8
  br label %evdns_tcp_disconnect.exit.i26

evdns_tcp_disconnect.exit.i26:                    ; preds = %31, %27
  tail call void @event_mm_free_(ptr noundef nonnull %26) #21
  br label %disconnect_and_free_connection.exit27

disconnect_and_free_connection.exit27:            ; preds = %25, %evdns_tcp_disconnect.exit.i26
  store ptr null, ptr %4, align 8
  br label %38

32:                                               ; preds = %23
  %33 = and i16 %1, 128
  %.not22 = icmp eq i16 %33, 0
  br i1 %.not22, label %38, label %34

34:                                               ; preds = %32
  %35 = getelementptr inbounds nuw i8, ptr %5, i64 8
  store i32 2, ptr %35, align 8
  %36 = tail call i32 @bufferevent_getfd(ptr noundef %0) #21
  %37 = tail call i32 @evutil_make_socket_nonblocking(i32 noundef %36) #21
  tail call void @bufferevent_setcb(ptr noundef %0, ptr noundef nonnull @client_tcp_read_packet_cb, ptr noundef null, ptr noundef nonnull @client_tcp_event_cb, ptr noundef nonnull %2) #21
  tail call void @bufferevent_setwatermark(ptr noundef %0, i16 noundef signext 2, i64 noundef 2, i64 noundef 0) #21
  br label %38

38:                                               ; preds = %disconnect_and_free_connection.exit, %32, %34, %disconnect_and_free_connection.exit27
  %39 = load ptr, ptr %6, align 8
  %40 = getelementptr inbounds nuw i8, ptr %39, i64 344
  %41 = load ptr, ptr %40, align 8
  %.not23 = icmp eq ptr %41, null
  br i1 %.not23, label %45, label %42

42:                                               ; preds = %38
  %43 = load ptr, ptr getelementptr inbounds nuw (i8, ptr @evthread_lock_fns_, i64 32), align 8
  %44 = tail call i32 %43(i32 noundef 0, ptr noundef nonnull %41) #21
  br label %45

45:                                               ; preds = %42, %38
  ret void
}